target datalayout = "e-m:e-p270:32:32-p271:32:32-p272:64:64-i64:64-i128:128-f80:128-n8:16:32:64-S128"
target triple = "x86_64-pc-linux-gnu"

%"class.icu_77::SkeletonFields" = type { [16 x i8], [16 x i8] }

; Function Attrs: inlinehint mustprogress uwtable
define linkonce_odr noundef nonnull align 8 dereferenceable(64) ptr @_ZN6icu_7713UnicodeStringpLEDs(ptr noundef nonnull align 8 dereferenceable(64) %0, i16 noundef zeroext %1) #3 comdat align 2 {
  %3 = alloca ptr, align 8
  %4 = alloca i16, align 2
  store ptr %0, ptr %3, align 8, !tbaa !60
  store i16 %1, ptr %4, align 2, !tbaa !104
  %5 = load ptr, ptr %3, align 8
  %6 = call noundef nonnull align 8 dereferenceable(64) ptr @_ZN6icu_7713UnicodeString8doAppendEPKDsii(ptr noundef nonnull align 8 dereferenceable(64) %5, ptr noundef %4, i32 noundef 0, i32 noundef 1)
  ret ptr %6
}

; Function Attrs: mustprogress uwtable
define noundef nonnull align 8 dereferenceable(64) ptr @_ZNK6icu_7714SkeletonFields13appendFieldToEiRNS_13UnicodeStringE(ptr noundef nonnull align 1 dereferenceable(32) %0, i32 noundef %1, ptr noundef nonnull align 8 dereferenceable(64) %2) #1 align 2 {
  %4 = alloca ptr, align 8
  %5 = alloca i32, align 4
  %6 = alloca ptr, align 8
  %7 = alloca i16, align 2
  %8 = alloca i32, align 4
  %9 = alloca i32, align 4
  store ptr %0, ptr %4, align 8, !tbaa !208
  store i32 %1, ptr %5, align 4, !tbaa !14
  store ptr %2, ptr %6, align 8, !tbaa !60
  %10 = load ptr, ptr %4, align 8
  call void @llvm.lifetime.start.p0(i64 2, ptr %7) #13
  %11 = getelementptr inbounds nuw %"class.icu_77::SkeletonFields", ptr %10, i32 0, i32 0
  %12 = load i32, ptr %5, align 4, !tbaa !14
  %13 = sext i32 %12 to i64
  %14 = getelementptr inbounds [16 x i8], ptr %11, i64 0, i64 %13
  %15 = load i8, ptr %14, align 1, !tbaa !62
  %16 = sext i8 %15 to i16
  store i16 %16, ptr %7, align 2, !tbaa !104
  call void @llvm.lifetime.start.p0(i64 4, ptr %8) #13
  %17 = getelementptr inbounds nuw %"class.icu_77::SkeletonFields", ptr %10, i32 0, i32 1
  %18 = load i32, ptr %5, align 4, !tbaa !14
  %19 = sext i32 %18 to i64
  %20 = getelementptr inbounds [16 x i8], ptr %17, i64 0, i64 %19
  %21 = load i8, ptr %20, align 1, !tbaa !62
  %22 = sext i8 %21 to i32
  store i32 %22, ptr %8, align 4, !tbaa !14
  call void @llvm.lifetime.start.p0(i64 4, ptr %9) #13
  store i32 0, ptr %9, align 4, !tbaa !14
  br label %23

23:                                               ; preds = %32, %3
  %24 = load i32, ptr %9, align 4, !tbaa !14
  %25 = load i32, ptr %8, align 4, !tbaa !14
  %26 = icmp slt i32 %24, %25
  br i1 %26, label %28, label %27

27:                                               ; preds = %23
  call void @llvm.lifetime.end.p0(i64 4, ptr %9) #13
  br label %35

28:                                               ; preds = %23
  %29 = load i16, ptr %7, align 2, !tbaa !104
  %30 = load ptr, ptr %6, align 8, !tbaa !60
  %31 = call noundef nonnull align 8 dereferenceable(64) ptr @_ZN6icu_7713UnicodeStringpLEDs(ptr noundef nonnull align 8 dereferenceable(64) %30, i16 noundef zeroext %29)
  br label %32

32:                                               ; preds = %28
  %33 = load i32, ptr %9, align 4, !tbaa !14
  %34 = add nsw i32 %33, 1
  store i32 %34, ptr %9, align 4, !tbaa !14
  br label %23, !llvm.loop !240

35:                                               ; preds = %27
  %36 = load ptr, ptr %6, align 8, !tbaa !60
  call void @llvm.lifetime.end.p0(i64 4, ptr %8) #13
  call void @llvm.lifetime.end.p0(i64 2, ptr %7) #13
  ret ptr %36
}

; Function Attrs: mustprogress uwtable
define noundef nonnull align 8 dereferenceable(64) ptr @_ZNK6icu_7714SkeletonFields8appendToERNS_13UnicodeStringE(ptr noundef nonnull align 1 dereferenceable(32) %0, ptr noundef nonnull align 8 dereferenceable(64) %1) #1 align 2 {
  %3 = alloca ptr, align 8
  %4 = alloca ptr, align 8
  %5 = alloca i32, align 4
  store ptr %0, ptr %3, align 8, !tbaa !208
  store ptr %1, ptr %4, align 8, !tbaa !60
  %6 = load ptr, ptr %3, align 8
  call void @llvm.lifetime.start.p0(i64 4, ptr %5) #13
  store i32 0, ptr %5, align 4, !tbaa !14
  br label %7

7:                                                ; preds = %15, %2
  %8 = load i32, ptr %5, align 4, !tbaa !14
  %9 = icmp slt i32 %8, 16
  br i1 %9, label %11, label %10

10:                                               ; preds = %7
  call void @llvm.lifetime.end.p0(i64 4, ptr %5) #13
  br label %18

11:                                               ; preds = %7
  %12 = load i32, ptr %5, align 4, !tbaa !14
  %13 = load ptr, ptr %4, align 8, !tbaa !60
  %14 = call noundef nonnull align 8 dereferenceable(64) ptr @_ZNK6icu_7714SkeletonFields13appendFieldToEiRNS_13UnicodeStringE(ptr noundef nonnull align 1 dereferenceable(32) %6, i32 noundef %12, ptr noundef nonnull align 8 dereferenceable(64) %13)
  br label %15

15:                                               ; preds = %11
  %16 = load i32, ptr %5, align 4, !tbaa !14
  %17 = add nsw i32 %16, 1
  store i32 %17, ptr %5, align 4, !tbaa !14
  br label %7, !llvm.loop !267

18:                                               ; preds = %10
  %19 = load ptr, ptr %4, align 8, !tbaa !60
  ret ptr %19
}