; Function Attrs: mustprogress uwtable
define noundef nonnull align 8 dereferenceable(64) ptr @_ZNK6icu_7714SkeletonFields8appendToERNS_13UnicodeStringE(ptr noundef nonnull readonly align 1 captures(none) dereferenceable(32) %0, ptr noundef nonnull returned align 8 dereferenceable(64) %1) local_unnamed_addr #1 align 2 {
  %3 = alloca i16, align 2
  %4 = getelementptr inbounds nuw i8, ptr %0, i64 16
  br label %6

5:                                                ; preds = %_ZNK6icu_7714SkeletonFields13appendFieldToEiRNS_13UnicodeStringE.exit
  ret ptr %1

6:                                                ; preds = %2, %_ZNK6icu_7714SkeletonFields13appendFieldToEiRNS_13UnicodeStringE.exit
  %indvars.iv = phi i64 [ 0, %2 ], [ %indvars.iv.next, %_ZNK6icu_7714SkeletonFields13appendFieldToEiRNS_13UnicodeStringE.exit ]
  %7 = getelementptr inbounds nuw [16 x i8], ptr %0, i64 0, i64 %indvars.iv
  %8 = load i8, ptr %7, align 1, !tbaa !17
  %9 = sext i8 %8 to i16
  %10 = getelementptr inbounds nuw [16 x i8], ptr %4, i64 0, i64 %indvars.iv
  %11 = load i8, ptr %10, align 1, !tbaa !17
  %12 = sext i8 %11 to i32
  %13 = icmp sgt i8 %11, 0
  br i1 %13, label %.lr.ph.i, label %_ZNK6icu_7714SkeletonFields13appendFieldToEiRNS_13UnicodeStringE.exit

.lr.ph.i:                                         ; preds = %6, %.lr.ph.i
  %.08.i = phi i32 [ %15, %.lr.ph.i ], [ 0, %6 ]
  call void @llvm.lifetime.start.p0(i64 2, ptr nonnull %3)
  store i16 %9, ptr %3, align 2, !tbaa !79
  %14 = call noundef nonnull align 8 dereferenceable(64) ptr @_ZN6icu_7713UnicodeString8doAppendEPKDsii(ptr noundef nonnull align 8 dereferenceable(64) %1, ptr noundef nonnull %3, i32 noundef 0, i32 noundef 1)
  call void @llvm.lifetime.end.p0(i64 2, ptr nonnull %3)
  %15 = add nuw nsw i32 %.08.i, 1
  %exitcond.not.i = icmp eq i32 %15, %12
  br i1 %exitcond.not.i, label %_ZNK6icu_7714SkeletonFields13appendFieldToEiRNS_13UnicodeStringE.exit, label %.lr.ph.i, !llvm.loop !116

_ZNK6icu_7714SkeletonFields13appendFieldToEiRNS_13UnicodeStringE.exit: ; preds = %.lr.ph.i, %6
  %indvars.iv.next = add nuw nsw i64 %indvars.iv, 1
  %exitcond.not = icmp eq i64 %indvars.iv.next, 16
  br i1 %exitcond.not, label %5, label %6, !llvm.loop !117
}